target datalayout = "e-m:e-p270:32:32-p271:32:32-p272:64:64-i64:64-i128:128-f80:128-n8:16:32:64-S128"
target triple = "x86_64-pc-linux-gnu"

%class.btSphereBoxCollisionAlgorithm = type <{ %class.btActivatingCollisionAlgorithm, i8, [7 x i8], ptr, i8, [7 x i8] }>
%class.btActivatingCollisionAlgorithm = type { %class.btCollisionAlgorithm }
%class.btCollisionAlgorithm = type { ptr, ptr }
%struct.btCollisionObjectWrapper = type { ptr, ptr, ptr, ptr, ptr, i32, i32 }

; Function Attrs: inlinehint mustprogress nounwind uwtable
define linkonce_odr dso_local noundef ptr @_ZNK24btCollisionObjectWrapper18getCollisionObjectEv(ptr noundef nonnull align 8 dereferenceable(48) %0) #5 comdat align 2 {
  %2 = alloca ptr, align 8
  store ptr %0, ptr %2, align 8, !tbaa !18
  %3 = load ptr, ptr %2, align 8
  %4 = getelementptr inbounds nuw %struct.btCollisionObjectWrapper, ptr %3, i32 0, i32 2
  %5 = load ptr, ptr %4, align 8, !tbaa !34
  ret ptr %5
}

; Function Attrs: mustprogress uwtable
define dso_local void @_ZN29btSphereBoxCollisionAlgorithmC2EP20btPersistentManifoldRK36btCollisionAlgorithmConstructionInfoPK24btCollisionObjectWrapperS7_b(ptr noundef nonnull align 8 dereferenceable(33) %0, ptr noundef %1, ptr noundef nonnull align 8 dereferenceable(16) %2, ptr noundef %3, ptr noundef %4, i1 noundef zeroext %5) unnamed_addr #2 align 2 personality ptr @__gxx_personality_v0 {
  %7 = alloca ptr, align 8
  %8 = alloca ptr, align 8
  %9 = alloca ptr, align 8
  %10 = alloca ptr, align 8
  %11 = alloca ptr, align 8
  %12 = alloca i8, align 1
  %13 = alloca ptr, align 8
  %14 = alloca ptr, align 8
  %15 = alloca ptr, align 8
  %16 = alloca i32, align 4
  store ptr %0, ptr %7, align 8, !tbaa !12
  store ptr %1, ptr %8, align 8, !tbaa !14
  store ptr %2, ptr %9, align 8, !tbaa !16
  store ptr %3, ptr %10, align 8, !tbaa !18
  store ptr %4, ptr %11, align 8, !tbaa !18
  %17 = zext i1 %5 to i8
  store i8 %17, ptr %12, align 1, !tbaa !20
  %18 = load ptr, ptr %7, align 8
  %19 = load ptr, ptr %9, align 8, !tbaa !16
  %20 = load ptr, ptr %10, align 8, !tbaa !18
  %21 = load ptr, ptr %11, align 8, !tbaa !18
  call void @_ZN30btActivatingCollisionAlgorithmC2ERK36btCollisionAlgorithmConstructionInfoPK24btCollisionObjectWrapperS5_(ptr noundef nonnull align 8 dereferenceable(16) %18, ptr noundef nonnull align 8 dereferenceable(16) %19, ptr noundef %20, ptr noundef %21)
  store ptr getelementptr inbounds inrange(-16, 40) ({ [7 x ptr] }, ptr @_ZTV29btSphereBoxCollisionAlgorithm, i32 0, i32 0, i32 2), ptr %18, align 8, !tbaa !22
  %22 = getelementptr inbounds nuw %class.btSphereBoxCollisionAlgorithm, ptr %18, i32 0, i32 1
  store i8 0, ptr %22, align 8, !tbaa !24
  %23 = getelementptr inbounds nuw %class.btSphereBoxCollisionAlgorithm, ptr %18, i32 0, i32 3
  %24 = load ptr, ptr %8, align 8, !tbaa !14
  store ptr %24, ptr %23, align 8, !tbaa !29
  %25 = getelementptr inbounds nuw %class.btSphereBoxCollisionAlgorithm, ptr %18, i32 0, i32 4
  %26 = load i8, ptr %12, align 1, !tbaa !20, !range !30, !noundef !31
  %27 = trunc i8 %26 to i1
  %28 = zext i1 %27 to i8
  store i8 %28, ptr %25, align 8, !tbaa !32
  call void @llvm.lifetime.start.p0(i64 8, ptr %13) #14
  %29 = getelementptr inbounds nuw %class.btSphereBoxCollisionAlgorithm, ptr %18, i32 0, i32 4
  %30 = load i8, ptr %29, align 8, !tbaa !32, !range !30, !noundef !31
  %31 = trunc i8 %30 to i1
  br i1 %31, label %32, label %34

32:                                               ; preds = %6
  %33 = load ptr, ptr %11, align 8, !tbaa !18
  br label %36

34:                                               ; preds = %6
  %35 = load ptr, ptr %10, align 8, !tbaa !18
  br label %36

36:                                               ; preds = %34, %32
  %37 = phi ptr [ %33, %32 ], [ %35, %34 ]
  store ptr %37, ptr %13, align 8, !tbaa !18
  call void @llvm.lifetime.start.p0(i64 8, ptr %14) #14
  %38 = getelementptr inbounds nuw %class.btSphereBoxCollisionAlgorithm, ptr %18, i32 0, i32 4
  %39 = load i8, ptr %38, align 8, !tbaa !32, !range !30, !noundef !31
  %40 = trunc i8 %39 to i1
  br i1 %40, label %41, label %43

41:                                               ; preds = %36
  %42 = load ptr, ptr %10, align 8, !tbaa !18
  br label %45

43:                                               ; preds = %36
  %44 = load ptr, ptr %11, align 8, !tbaa !18
  br label %45

45:                                               ; preds = %43, %41
  %46 = phi ptr [ %42, %41 ], [ %44, %43 ]
  store ptr %46, ptr %14, align 8, !tbaa !18
  %47 = getelementptr inbounds nuw %class.btSphereBoxCollisionAlgorithm, ptr %18, i32 0, i32 3
  %48 = load ptr, ptr %47, align 8, !tbaa !29
  %49 = icmp ne ptr %48, null
  br i1 %49, label %84, label %50

50:                                               ; preds = %45
  %51 = getelementptr inbounds nuw %class.btCollisionAlgorithm, ptr %18, i32 0, i32 1
  %52 = load ptr, ptr %51, align 8, !tbaa !33
  %53 = load ptr, ptr %13, align 8, !tbaa !18
  %54 = invoke noundef ptr @_ZNK24btCollisionObjectWrapper18getCollisionObjectEv(ptr noundef nonnull align 8 dereferenceable(48) %53)
          to label %55 unwind label %80

55:                                               ; preds = %50
  %56 = load ptr, ptr %14, align 8, !tbaa !18
  %57 = invoke noundef ptr @_ZNK24btCollisionObjectWrapper18getCollisionObjectEv(ptr noundef nonnull align 8 dereferenceable(48) %56)
          to label %58 unwind label %80

58:                                               ; preds = %55
  %59 = load ptr, ptr %52, align 8, !tbaa !22
  %60 = getelementptr inbounds ptr, ptr %59, i64 6
  %61 = load ptr, ptr %60, align 8
  %62 = invoke noundef zeroext i1 %61(ptr noundef nonnull align 8 dereferenceable(8) %52, ptr noundef %54, ptr noundef %57)
          to label %63 unwind label %80

63:                                               ; preds = %58
  br i1 %62, label %64, label %84

64:                                               ; preds = %63
  %65 = getelementptr inbounds nuw %class.btCollisionAlgorithm, ptr %18, i32 0, i32 1
  %66 = load ptr, ptr %65, align 8, !tbaa !33
  %67 = load ptr, ptr %13, align 8, !tbaa !18
  %68 = invoke noundef ptr @_ZNK24btCollisionObjectWrapper18getCollisionObjectEv(ptr noundef nonnull align 8 dereferenceable(48) %67)
          to label %69 unwind label %80

69:                                               ; preds = %64
  %70 = load ptr, ptr %14, align 8, !tbaa !18
  %71 = invoke noundef ptr @_ZNK24btCollisionObjectWrapper18getCollisionObjectEv(ptr noundef nonnull align 8 dereferenceable(48) %70)
          to label %72 unwind label %80

72:                                               ; preds = %69
  %73 = load ptr, ptr %66, align 8, !tbaa !22
  %74 = getelementptr inbounds ptr, ptr %73, i64 3
  %75 = load ptr, ptr %74, align 8
  %76 = invoke noundef ptr %75(ptr noundef nonnull align 8 dereferenceable(8) %66, ptr noundef %68, ptr noundef %71)
          to label %77 unwind label %80

77:                                               ; preds = %72
  %78 = getelementptr inbounds nuw %class.btSphereBoxCollisionAlgorithm, ptr %18, i32 0, i32 3
  store ptr %76, ptr %78, align 8, !tbaa !29
  %79 = getelementptr inbounds nuw %class.btSphereBoxCollisionAlgorithm, ptr %18, i32 0, i32 1
  store i8 1, ptr %79, align 8, !tbaa !24
  br label %84

80:                                               ; preds = %72, %69, %64, %58, %55, %50
  %81 = landingpad { ptr, i32 }
          cleanup
  %82 = extractvalue { ptr, i32 } %81, 0
  store ptr %82, ptr %15, align 8
  %83 = extractvalue { ptr, i32 } %81, 1
  store i32 %83, ptr %16, align 4
  call void @llvm.lifetime.end.p0(i64 8, ptr %14) #14
  call void @llvm.lifetime.end.p0(i64 8, ptr %13) #14
  call void @_ZN30btActivatingCollisionAlgorithmD2Ev(ptr noundef nonnull align 8 dereferenceable(16) %18) #14
  br label %85

84:                                               ; preds = %77, %63, %45
  call void @llvm.lifetime.end.p0(i64 8, ptr %14) #14
  call void @llvm.lifetime.end.p0(i64 8, ptr %13) #14
  ret void

85:                                               ; preds = %80
  %86 = load ptr, ptr %15, align 8
  %87 = load i32, ptr %16, align 4
  %88 = insertvalue { ptr, i32 } poison, ptr %86, 0
  %89 = insertvalue { ptr, i32 } %88, i32 %87, 1
  resume { ptr, i32 } %89
}