; Function Attrs: mustprogress uwtable
define dso_local void @_ZN29btSphereBoxCollisionAlgorithmC2EP20btPersistentManifoldRK36btCollisionAlgorithmConstructionInfoPK24btCollisionObjectWrapperS7_b(ptr noundef nonnull align 8 dereferenceable(33) %0, ptr noundef %1, ptr noundef nonnull align 8 dereferenceable(16) %2, ptr noundef %3, ptr noundef %4, i1 noundef zeroext %5) unnamed_addr #0 align 2 personality ptr @__gxx_personality_v0 {
  %7 = zext i1 %5 to i8
  tail call void @_ZN30btActivatingCollisionAlgorithmC2ERK36btCollisionAlgorithmConstructionInfoPK24btCollisionObjectWrapperS5_(ptr noundef nonnull align 8 dereferenceable(16) %0, ptr noundef nonnull align 8 dereferenceable(16) %2, ptr noundef %3, ptr noundef %4)
  store ptr getelementptr inbounds nuw inrange(-16, 40) (i8, ptr @_ZTV29btSphereBoxCollisionAlgorithm, i64 16), ptr %0, align 8, !tbaa !4
  %8 = getelementptr inbounds nuw i8, ptr %0, i64 16
  store i8 0, ptr %8, align 8, !tbaa !7
  %9 = getelementptr inbounds nuw i8, ptr %0, i64 24
  store ptr %1, ptr %9, align 8, !tbaa !16
  %10 = getelementptr inbounds nuw i8, ptr %0, i64 32
  store i8 %7, ptr %10, align 8, !tbaa !17
  %.not = icmp eq ptr %1, null
  br i1 %.not, label %11, label %36

11:                                               ; preds = %6
  %12 = select i1 %5, ptr %3, ptr %4
  %13 = select i1 %5, ptr %4, ptr %3
  %14 = getelementptr inbounds nuw i8, ptr %0, i64 8
  %15 = load ptr, ptr %14, align 8, !tbaa !18
  %16 = getelementptr inbounds nuw i8, ptr %13, i64 16
  %17 = load ptr, ptr %16, align 8, !tbaa !19
  %18 = getelementptr inbounds nuw i8, ptr %12, i64 16
  %19 = load ptr, ptr %18, align 8, !tbaa !19
  %20 = load ptr, ptr %15, align 8, !tbaa !4
  %21 = getelementptr inbounds nuw i8, ptr %20, i64 48
  %22 = load ptr, ptr %21, align 8
  %23 = invoke noundef zeroext i1 %22(ptr noundef nonnull align 8 dereferenceable(8) %15, ptr noundef %17, ptr noundef %19)
          to label %24 unwind label %34

24:                                               ; preds = %11
  br i1 %23, label %25, label %36

25:                                               ; preds = %24
  %26 = load ptr, ptr %14, align 8, !tbaa !18
  %27 = load ptr, ptr %16, align 8, !tbaa !19
  %28 = load ptr, ptr %18, align 8, !tbaa !19
  %29 = load ptr, ptr %26, align 8, !tbaa !4
  %30 = getelementptr inbounds nuw i8, ptr %29, i64 24
  %31 = load ptr, ptr %30, align 8
  %32 = invoke noundef ptr %31(ptr noundef nonnull align 8 dereferenceable(8) %26, ptr noundef %27, ptr noundef %28)
          to label %33 unwind label %34

33:                                               ; preds = %25
  store ptr %32, ptr %9, align 8, !tbaa !16
  store i8 1, ptr %8, align 8, !tbaa !7
  br label %36

34:                                               ; preds = %25, %11
  %35 = landingpad { ptr, i32 }
          cleanup
  tail call void @_ZN30btActivatingCollisionAlgorithmD2Ev(ptr noundef nonnull align 8 dereferenceable(16) %0) #14
  resume { ptr, i32 } %35

36:                                               ; preds = %33, %24, %6
  ret void
}